target datalayout = "e-m:e-p270:32:32-p271:32:32-p272:64:64-i64:64-i128:128-f80:128-n8:16:32:64-S128"
target triple = "x86_64-pc-linux-gnu"

%struct.VariableStatData = type { ptr, ptr, ptr, ptr, i32, i32, i32, i8, i8 }
%struct.FunctionCallInfoBaseData = type { ptr, ptr, ptr, i32, i8, i16, [0 x %struct.NullableDatum] }
%struct.NullableDatum = type { i64, i8 }
%struct.AttStatsSlot = type { i32, i32, i32, ptr, i32, ptr, i32, ptr, ptr }
%struct.FmgrInfo = type { ptr, i32, i16, i8, i8, i8, ptr, ptr, ptr }
%union.anon.1 = type { %struct.FunctionCallInfoBaseData, [32 x i8] }

@.str.1 = private unnamed_addr constant [11 x i8] c"selfuncs.c\00", align 1
@.str.7 = private unnamed_addr constant [60 x i8] c"not using statistics because function \22%s\22 is not leakproof\00", align 1
@__func__.statistic_proc_security_check = private unnamed_addr constant [30 x i8] c"statistic_proc_security_check\00", align 1

; Function Attrs: inlinehint nounwind uwtable
define internal zeroext i1 @DatumGetBool(i64 noundef %0) #1 {
  %2 = alloca i64, align 8
  store i64 %0, ptr %2, align 8
  %3 = load i64, ptr %2, align 8
  %4 = icmp ne i64 %3, 0
  ret i1 %4
}

; Function Attrs: nounwind uwtable
define dso_local zeroext i1 @statistic_proc_security_check(ptr noundef %0, i32 noundef %1) #0 {
  %3 = alloca i1, align 1
  %4 = alloca ptr, align 8
  %5 = alloca i32, align 4
  store ptr %0, ptr %4, align 8
  store i32 %1, ptr %5, align 4
  %6 = load ptr, ptr %4, align 8
  %7 = getelementptr inbounds nuw %struct.VariableStatData, ptr %6, i32 0, i32 8
  %8 = load i8, ptr %7, align 1, !range !4, !noundef !5
  %9 = trunc i8 %8 to i1
  br i1 %9, label %10, label %11

10:                                               ; preds = %2
  store i1 true, ptr %3, align 1
  br label %31

11:                                               ; preds = %2
  %12 = load i32, ptr %5, align 4
  %13 = icmp ne i32 %12, 0
  br i1 %13, label %15, label %14

14:                                               ; preds = %11
  store i1 false, ptr %3, align 1
  br label %31

15:                                               ; preds = %11
  %16 = load i32, ptr %5, align 4
  %17 = call zeroext i1 @get_func_leakproof(i32 noundef %16)
  br i1 %17, label %18, label %19

18:                                               ; preds = %15
  store i1 true, ptr %3, align 1
  br label %31

19:                                               ; preds = %15
  br label %20

20:                                               ; preds = %19
  br i1 false, label %21, label %23

21:                                               ; preds = %20
  %22 = call zeroext i1 @errstart_cold(i32 noundef 13, ptr noundef null) #11
  br i1 %22, label %25, label %29

23:                                               ; preds = %20
  %24 = call zeroext i1 @errstart(i32 noundef 13, ptr noundef null)
  br i1 %24, label %25, label %29

25:                                               ; preds = %23, %21
  %26 = load i32, ptr %5, align 4
  %27 = call ptr @get_func_name(i32 noundef %26)
  %28 = call i32 (ptr, ...) @errmsg_internal(ptr noundef @.str.7, ptr noundef %27)
  call void @errfinish(ptr noundef @.str.1, i32 noundef 5782, ptr noundef @__func__.statistic_proc_security_check)
  br label %29

29:                                               ; preds = %25, %23, %21
  br label %30

30:                                               ; preds = %29
  store i1 false, ptr %3, align 1
  br label %31

31:                                               ; preds = %30, %18, %14, %10
  %32 = load i1, ptr %3, align 1
  ret i1 %32
}

; Function Attrs: nounwind uwtable
define dso_local double @histogram_selectivity(ptr noundef %0, ptr noundef %1, i32 noundef %2, i64 noundef %3, i1 noundef zeroext %4, i32 noundef %5, i32 noundef %6, ptr noundef %7) #0 {
  %9 = alloca ptr, align 8
  %10 = alloca ptr, align 8
  %11 = alloca i32, align 4
  %12 = alloca i64, align 8
  %13 = alloca i8, align 1
  %14 = alloca i32, align 4
  %15 = alloca i32, align 4
  %16 = alloca ptr, align 8
  %17 = alloca double, align 8
  %18 = alloca %struct.AttStatsSlot, align 8
  %19 = alloca %union.anon.1, align 8
  %20 = alloca ptr, align 8
  %21 = alloca i32, align 4
  %22 = alloca i32, align 4
  %23 = alloca i64, align 8
  store ptr %0, ptr %9, align 8
  store ptr %1, ptr %10, align 8
  store i32 %2, ptr %11, align 4
  store i64 %3, ptr %12, align 8
  %24 = zext i1 %4 to i8
  store i8 %24, ptr %13, align 1
  store i32 %5, ptr %14, align 4
  store i32 %6, ptr %15, align 4
  store ptr %7, ptr %16, align 8
  call void @llvm.lifetime.start.p0(i64 8, ptr %17) #10
  call void @llvm.lifetime.start.p0(i64 64, ptr %18) #10
  %25 = load ptr, ptr %9, align 8
  %26 = getelementptr inbounds nuw %struct.VariableStatData, ptr %25, i32 0, i32 2
  %27 = load ptr, ptr %26, align 8
  %28 = icmp ne ptr %27, null
  br i1 %28, label %29, label %158

29:                                               ; preds = %8
  %30 = load ptr, ptr %9, align 8
  %31 = load ptr, ptr %10, align 8
  %32 = getelementptr inbounds nuw %struct.FmgrInfo, ptr %31, i32 0, i32 1
  %33 = load i32, ptr %32, align 8
  %34 = call zeroext i1 @statistic_proc_security_check(ptr noundef %30, i32 noundef %33)
  br i1 %34, label %35, label %158

35:                                               ; preds = %29
  %36 = load ptr, ptr %9, align 8
  %37 = getelementptr inbounds nuw %struct.VariableStatData, ptr %36, i32 0, i32 2
  %38 = load ptr, ptr %37, align 8
  %39 = call zeroext i1 @get_attstatsslot(ptr noundef %18, ptr noundef %38, i32 noundef 2, i32 noundef 0, i32 noundef 1)
  br i1 %39, label %40, label %158

40:                                               ; preds = %35
  %41 = getelementptr inbounds nuw %struct.AttStatsSlot, ptr %18, i32 0, i32 4
  %42 = load i32, ptr %41, align 8
  %43 = load ptr, ptr %16, align 8
  store i32 %42, ptr %43, align 4
  %44 = getelementptr inbounds nuw %struct.AttStatsSlot, ptr %18, i32 0, i32 4
  %45 = load i32, ptr %44, align 8
  %46 = load i32, ptr %14, align 4
  %47 = icmp sge i32 %45, %46
  br i1 %47, label %48, label %156

48:                                               ; preds = %40
  call void @llvm.lifetime.start.p0(i64 64, ptr %19) #10
  call void @llvm.lifetime.start.p0(i64 8, ptr %20) #10
  store ptr %19, ptr %20, align 8
  call void @llvm.lifetime.start.p0(i64 4, ptr %21) #10
  store i32 0, ptr %21, align 4
  call void @llvm.lifetime.start.p0(i64 4, ptr %22) #10
  br label %49

49:                                               ; preds = %48
  %50 = load ptr, ptr %10, align 8
  %51 = load ptr, ptr %20, align 8
  %52 = getelementptr inbounds nuw %struct.FunctionCallInfoBaseData, ptr %51, i32 0, i32 0
  store ptr %50, ptr %52, align 8
  %53 = load ptr, ptr %20, align 8
  %54 = getelementptr inbounds nuw %struct.FunctionCallInfoBaseData, ptr %53, i32 0, i32 1
  store ptr null, ptr %54, align 8
  %55 = load ptr, ptr %20, align 8
  %56 = getelementptr inbounds nuw %struct.FunctionCallInfoBaseData, ptr %55, i32 0, i32 2
  store ptr null, ptr %56, align 8
  %57 = load i32, ptr %11, align 4
  %58 = load ptr, ptr %20, align 8
  %59 = getelementptr inbounds nuw %struct.FunctionCallInfoBaseData, ptr %58, i32 0, i32 3
  store i32 %57, ptr %59, align 8
  %60 = load ptr, ptr %20, align 8
  %61 = getelementptr inbounds nuw %struct.FunctionCallInfoBaseData, ptr %60, i32 0, i32 4
  store i8 0, ptr %61, align 4
  %62 = load ptr, ptr %20, align 8
  %63 = getelementptr inbounds nuw %struct.FunctionCallInfoBaseData, ptr %62, i32 0, i32 5
  store i16 2, ptr %63, align 2
  br label %64

64:                                               ; preds = %49
  br label %65

65:                                               ; preds = %64
  %66 = load ptr, ptr %20, align 8
  %67 = getelementptr inbounds nuw %struct.FunctionCallInfoBaseData, ptr %66, i32 0, i32 6
  %68 = getelementptr inbounds [0 x %struct.NullableDatum], ptr %67, i64 0, i64 0
  %69 = getelementptr inbounds nuw %struct.NullableDatum, ptr %68, i32 0, i32 1
  store i8 0, ptr %69, align 8
  %70 = load ptr, ptr %20, align 8
  %71 = getelementptr inbounds nuw %struct.FunctionCallInfoBaseData, ptr %70, i32 0, i32 6
  %72 = getelementptr inbounds [0 x %struct.NullableDatum], ptr %71, i64 0, i64 1
  %73 = getelementptr inbounds nuw %struct.NullableDatum, ptr %72, i32 0, i32 1
  store i8 0, ptr %73, align 8
  %74 = load i8, ptr %13, align 1, !range !4, !noundef !5
  %75 = trunc i8 %74 to i1
  br i1 %75, label %76, label %82

76:                                               ; preds = %65
  %77 = load i64, ptr %12, align 8
  %78 = load ptr, ptr %20, align 8
  %79 = getelementptr inbounds nuw %struct.FunctionCallInfoBaseData, ptr %78, i32 0, i32 6
  %80 = getelementptr inbounds [0 x %struct.NullableDatum], ptr %79, i64 0, i64 1
  %81 = getelementptr inbounds nuw %struct.NullableDatum, ptr %80, i32 0, i32 0
  store i64 %77, ptr %81, align 8
  br label %88

82:                                               ; preds = %65
  %83 = load i64, ptr %12, align 8
  %84 = load ptr, ptr %20, align 8
  %85 = getelementptr inbounds nuw %struct.FunctionCallInfoBaseData, ptr %84, i32 0, i32 6
  %86 = getelementptr inbounds [0 x %struct.NullableDatum], ptr %85, i64 0, i64 0
  %87 = getelementptr inbounds nuw %struct.NullableDatum, ptr %86, i32 0, i32 0
  store i64 %83, ptr %87, align 8
  br label %88

88:                                               ; preds = %82, %76
  %89 = load i32, ptr %15, align 4
  store i32 %89, ptr %22, align 4
  br label %90

90:                                               ; preds = %143, %88
  %91 = load i32, ptr %22, align 4
  %92 = getelementptr inbounds nuw %struct.AttStatsSlot, ptr %18, i32 0, i32 4
  %93 = load i32, ptr %92, align 8
  %94 = load i32, ptr %15, align 4
  %95 = sub i32 %93, %94
  %96 = icmp slt i32 %91, %95
  br i1 %96, label %97, label %146

97:                                               ; preds = %90
  call void @llvm.lifetime.start.p0(i64 8, ptr %23) #10
  %98 = load i8, ptr %13, align 1, !range !4, !noundef !5
  %99 = trunc i8 %98 to i1
  br i1 %99, label %100, label %111

100:                                              ; preds = %97
  %101 = getelementptr inbounds nuw %struct.AttStatsSlot, ptr %18, i32 0, i32 3
  %102 = load ptr, ptr %101, align 8
  %103 = load i32, ptr %22, align 4
  %104 = sext i32 %103 to i64
  %105 = getelementptr inbounds i64, ptr %102, i64 %104
  %106 = load i64, ptr %105, align 8
  %107 = load ptr, ptr %20, align 8
  %108 = getelementptr inbounds nuw %struct.FunctionCallInfoBaseData, ptr %107, i32 0, i32 6
  %109 = getelementptr inbounds [0 x %struct.NullableDatum], ptr %108, i64 0, i64 0
  %110 = getelementptr inbounds nuw %struct.NullableDatum, ptr %109, i32 0, i32 0
  store i64 %106, ptr %110, align 8
  br label %122

111:                                              ; preds = %97
  %112 = getelementptr inbounds nuw %struct.AttStatsSlot, ptr %18, i32 0, i32 3
  %113 = load ptr, ptr %112, align 8
  %114 = load i32, ptr %22, align 4
  %115 = sext i32 %114 to i64
  %116 = getelementptr inbounds i64, ptr %113, i64 %115
  %117 = load i64, ptr %116, align 8
  %118 = load ptr, ptr %20, align 8
  %119 = getelementptr inbounds nuw %struct.FunctionCallInfoBaseData, ptr %118, i32 0, i32 6
  %120 = getelementptr inbounds [0 x %struct.NullableDatum], ptr %119, i64 0, i64 1
  %121 = getelementptr inbounds nuw %struct.NullableDatum, ptr %120, i32 0, i32 0
  store i64 %117, ptr %121, align 8
  br label %122

122:                                              ; preds = %111, %100
  %123 = load ptr, ptr %20, align 8
  %124 = getelementptr inbounds nuw %struct.FunctionCallInfoBaseData, ptr %123, i32 0, i32 4
  store i8 0, ptr %124, align 4
  %125 = load ptr, ptr %20, align 8
  %126 = getelementptr inbounds nuw %struct.FunctionCallInfoBaseData, ptr %125, i32 0, i32 0
  %127 = load ptr, ptr %126, align 8
  %128 = getelementptr inbounds nuw %struct.FmgrInfo, ptr %127, i32 0, i32 0
  %129 = load ptr, ptr %128, align 8
  %130 = load ptr, ptr %20, align 8
  %131 = call i64 %129(ptr noundef %130)
  store i64 %131, ptr %23, align 8
  %132 = load ptr, ptr %20, align 8
  %133 = getelementptr inbounds nuw %struct.FunctionCallInfoBaseData, ptr %132, i32 0, i32 4
  %134 = load i8, ptr %133, align 4, !range !4, !noundef !5
  %135 = trunc i8 %134 to i1
  br i1 %135, label %142, label %136

136:                                              ; preds = %122
  %137 = load i64, ptr %23, align 8
  %138 = call zeroext i1 @DatumGetBool(i64 noundef %137)
  br i1 %138, label %139, label %142

139:                                              ; preds = %136
  %140 = load i32, ptr %21, align 4
  %141 = add i32 %140, 1
  store i32 %141, ptr %21, align 4
  br label %142

142:                                              ; preds = %139, %136, %122
  call void @llvm.lifetime.end.p0(i64 8, ptr %23) #10
  br label %143

143:                                              ; preds = %142
  %144 = load i32, ptr %22, align 4
  %145 = add i32 %144, 1
  store i32 %145, ptr %22, align 4
  br label %90, !llvm.loop !10

146:                                              ; preds = %90
  %147 = load i32, ptr %21, align 4
  %148 = sitofp i32 %147 to double
  %149 = getelementptr inbounds nuw %struct.AttStatsSlot, ptr %18, i32 0, i32 4
  %150 = load i32, ptr %149, align 8
  %151 = load i32, ptr %15, align 4
  %152 = mul i32 2, %151
  %153 = sub i32 %150, %152
  %154 = sitofp i32 %153 to double
  %155 = fdiv double %148, %154
  store double %155, ptr %17, align 8
  call void @llvm.lifetime.end.p0(i64 4, ptr %22) #10
  call void @llvm.lifetime.end.p0(i64 4, ptr %21) #10
  call void @llvm.lifetime.end.p0(i64 8, ptr %20) #10
  call void @llvm.lifetime.end.p0(i64 64, ptr %19) #10
  br label %157

156:                                              ; preds = %40
  store double -1.000000e+00, ptr %17, align 8
  br label %157

157:                                              ; preds = %156, %146
  call void @free_attstatsslot(ptr noundef %18)
  br label %160

158:                                              ; preds = %35, %29, %8
  %159 = load ptr, ptr %16, align 8
  store i32 0, ptr %159, align 4
  store double -1.000000e+00, ptr %17, align 8
  br label %160

160:                                              ; preds = %158, %157
  %161 = load double, ptr %17, align 8
  call void @llvm.lifetime.end.p0(i64 64, ptr %18) #10
  call void @llvm.lifetime.end.p0(i64 8, ptr %17) #10
  ret double %161
}