; Function Attrs: nounwind uwtable
define dso_local double @histogram_selectivity(ptr noundef readonly captures(none) %0, ptr noundef %1, i32 noundef %2, i64 noundef %3, i1 noundef zeroext %4, i32 noundef %5, i32 noundef %6, ptr noundef writeonly captures(none) initializes((0, 4)) %7) local_unnamed_addr #0 {
  %9 = alloca %struct.AttStatsSlot, align 8
  %10 = alloca %union.anon.1, align 8
  call void @llvm.lifetime.start.p0(i64 64, ptr nonnull %9) #12
  %11 = getelementptr inbounds nuw i8, ptr %0, i64 16
  %12 = load ptr, ptr %11, align 8
  %.not = icmp eq ptr %12, null
  br i1 %.not, label %statistic_proc_security_check.exit.thread, label %13

13:                                               ; preds = %8
  %14 = getelementptr inbounds nuw i8, ptr %1, i64 8
  %15 = load i32, ptr %14, align 8
  %16 = getelementptr inbounds nuw i8, ptr %0, i64 45
  %17 = load i8, ptr %16, align 1, !range !4, !noundef !5
  %18 = trunc nuw i8 %17 to i1
  br i1 %18, label %statistic_proc_security_check.exit, label %19

19:                                               ; preds = %13
  %.not.i = icmp eq i32 %15, 0
  br i1 %.not.i, label %statistic_proc_security_check.exit.thread, label %20

20:                                               ; preds = %19
  %21 = tail call zeroext i1 @get_func_leakproof(i32 noundef %15) #12
  br i1 %21, label %.statistic_proc_security_check.exit_crit_edge, label %22

.statistic_proc_security_check.exit_crit_edge:    ; preds = %20
  %.pre = load ptr, ptr %11, align 8
  br label %statistic_proc_security_check.exit

22:                                               ; preds = %20
  %23 = tail call zeroext i1 @errstart(i32 noundef 13, ptr noundef null) #12
  br i1 %23, label %24, label %statistic_proc_security_check.exit.thread

24:                                               ; preds = %22
  %25 = tail call ptr @get_func_name(i32 noundef %15) #12
  %26 = tail call i32 (ptr, ...) @errmsg_internal(ptr noundef nonnull @.str.7, ptr noundef %25) #12
  tail call void @errfinish(ptr noundef nonnull @.str.1, i32 noundef 5782, ptr noundef nonnull @__func__.statistic_proc_security_check) #12
  br label %statistic_proc_security_check.exit.thread

statistic_proc_security_check.exit:               ; preds = %.statistic_proc_security_check.exit_crit_edge, %13
  %27 = phi ptr [ %.pre, %.statistic_proc_security_check.exit_crit_edge ], [ %12, %13 ]
  %28 = call zeroext i1 @get_attstatsslot(ptr noundef nonnull %9, ptr noundef %27, i32 noundef 2, i32 noundef 0, i32 noundef 1) #12
  br i1 %28, label %29, label %statistic_proc_security_check.exit.thread

29:                                               ; preds = %statistic_proc_security_check.exit
  %30 = getelementptr inbounds nuw i8, ptr %9, i64 24
  %31 = load i32, ptr %30, align 8
  store i32 %31, ptr %7, align 4
  %.not42 = icmp slt i32 %31, %5
  br i1 %.not42, label %77, label %32

32:                                               ; preds = %29
  call void @llvm.lifetime.start.p0(i64 64, ptr nonnull %10) #12
  store ptr %1, ptr %10, align 8
  %33 = getelementptr inbounds nuw i8, ptr %10, i64 8
  %34 = getelementptr inbounds nuw i8, ptr %10, i64 24
  call void @llvm.memset.p0.i64(ptr noundef nonnull align 8 dereferenceable(16) %33, i8 0, i64 16, i1 false)
  store i32 %2, ptr %34, align 8
  %35 = getelementptr inbounds nuw i8, ptr %10, i64 28
  store i8 0, ptr %35, align 4
  %36 = getelementptr inbounds nuw i8, ptr %10, i64 30
  store i16 2, ptr %36, align 2
  %37 = getelementptr inbounds nuw i8, ptr %10, i64 32
  %38 = getelementptr inbounds nuw i8, ptr %10, i64 40
  store i8 0, ptr %38, align 8
  %39 = getelementptr inbounds nuw i8, ptr %10, i64 48
  %40 = getelementptr inbounds nuw i8, ptr %10, i64 56
  store i8 0, ptr %40, align 8
  %41 = sub i32 %31, %6
  %42 = icmp slt i32 %6, %41
  br i1 %4, label %43, label %.thread

43:                                               ; preds = %32
  store i64 %3, ptr %39, align 8
  br i1 %42, label %.lr.ph, label %._crit_edge

.thread:                                          ; preds = %32
  store i64 %3, ptr %37, align 8
  br i1 %42, label %.lr.ph.thread, label %._crit_edge

.lr.ph.thread:                                    ; preds = %.thread
  %44 = getelementptr inbounds nuw i8, ptr %9, i64 16
  %45 = sext i32 %6 to i64
  br label %.lr.ph.split

.lr.ph:                                           ; preds = %43
  %46 = getelementptr inbounds nuw i8, ptr %9, i64 16
  %47 = sext i32 %6 to i64
  br label %.lr.ph.split.us

.lr.ph.split.us:                                  ; preds = %.lr.ph, %.lr.ph.split.us
  %indvars.iv53 = phi i64 [ %47, %.lr.ph ], [ %indvars.iv.next54, %.lr.ph.split.us ]
  %.04045.us = phi i32 [ 0, %.lr.ph ], [ %.141.us, %.lr.ph.split.us ]
  %48 = load ptr, ptr %46, align 8
  %49 = getelementptr inbounds i64, ptr %48, i64 %indvars.iv53
  %50 = load i64, ptr %49, align 8
  store i64 %50, ptr %37, align 8
  store i8 0, ptr %35, align 4
  %51 = load ptr, ptr %10, align 8
  %52 = load ptr, ptr %51, align 8
  %53 = call i64 %52(ptr noundef nonnull %10) #12
  %54 = load i8, ptr %35, align 4, !range !4, !noundef !5
  %55 = trunc nuw i8 %54 to i1
  %.not44.us = icmp ne i64 %53, 0
  %not..us = xor i1 %55, true
  %narrow.us = select i1 %not..us, i1 %.not44.us, i1 false
  %spec.select.us = zext i1 %narrow.us to i32
  %.141.us = add i32 %.04045.us, %spec.select.us
  %indvars.iv.next54 = add nsw i64 %indvars.iv53, 1
  %56 = load i32, ptr %30, align 8
  %57 = sub i32 %56, %6
  %58 = sext i32 %57 to i64
  %59 = icmp slt i64 %indvars.iv.next54, %58
  br i1 %59, label %.lr.ph.split.us, label %._crit_edge, !llvm.loop !10

.lr.ph.split:                                     ; preds = %.lr.ph.thread, %.lr.ph.split
  %indvars.iv = phi i64 [ %45, %.lr.ph.thread ], [ %indvars.iv.next, %.lr.ph.split ]
  %.04045 = phi i32 [ 0, %.lr.ph.thread ], [ %.141, %.lr.ph.split ]
  %60 = load ptr, ptr %44, align 8
  %61 = getelementptr inbounds i64, ptr %60, i64 %indvars.iv
  %62 = load i64, ptr %61, align 8
  store i64 %62, ptr %39, align 8
  store i8 0, ptr %35, align 4
  %63 = load ptr, ptr %10, align 8
  %64 = load ptr, ptr %63, align 8
  %65 = call i64 %64(ptr noundef nonnull %10) #12
  %66 = load i8, ptr %35, align 4, !range !4, !noundef !5
  %67 = trunc nuw i8 %66 to i1
  %.not44 = icmp ne i64 %65, 0
  %not. = xor i1 %67, true
  %narrow = select i1 %not., i1 %.not44, i1 false
  %spec.select = zext i1 %narrow to i32
  %.141 = add i32 %.04045, %spec.select
  %indvars.iv.next = add nsw i64 %indvars.iv, 1
  %68 = load i32, ptr %30, align 8
  %69 = sub i32 %68, %6
  %70 = sext i32 %69 to i64
  %71 = icmp slt i64 %indvars.iv.next, %70
  br i1 %71, label %.lr.ph.split, label %._crit_edge, !llvm.loop !10

._crit_edge:                                      ; preds = %.lr.ph.split, %.lr.ph.split.us, %.thread, %43
  %.040.lcssa = phi i32 [ 0, %43 ], [ 0, %.thread ], [ %.141.us, %.lr.ph.split.us ], [ %.141, %.lr.ph.split ]
  %.lcssa = phi i32 [ %31, %43 ], [ %31, %.thread ], [ %56, %.lr.ph.split.us ], [ %68, %.lr.ph.split ]
  %72 = sitofp i32 %.040.lcssa to double
  %73 = shl i32 %6, 1
  %74 = sub i32 %.lcssa, %73
  %75 = sitofp i32 %74 to double
  %76 = fdiv double %72, %75
  call void @llvm.lifetime.end.p0(i64 64, ptr nonnull %10) #12
  br label %77

77:                                               ; preds = %29, %._crit_edge
  %.0 = phi double [ %76, %._crit_edge ], [ -1.000000e+00, %29 ]
  call void @free_attstatsslot(ptr noundef nonnull %9) #12
  br label %78

statistic_proc_security_check.exit.thread:        ; preds = %24, %22, %19, %statistic_proc_security_check.exit, %8
  store i32 0, ptr %7, align 4
  br label %78

78:                                               ; preds = %statistic_proc_security_check.exit.thread, %77
  %.1 = phi double [ %.0, %77 ], [ -1.000000e+00, %statistic_proc_security_check.exit.thread ]
  call void @llvm.lifetime.end.p0(i64 64, ptr nonnull %9) #12
  ret double %.1
}